; Function Attrs: nofree norecurse nosync nounwind memory(read, inaccessiblemem: none) uwtable
define range(i32 0, 2) i32 @Wln_RetCheckBackward(ptr noundef readonly captures(none) %0, ptr noundef readonly captures(none) %1) local_unnamed_addr #13 {
  %3 = getelementptr i8, ptr %1, i64 4
  %.val8 = load i32, ptr %3, align 4, !tbaa !26
  %4 = icmp sgt i32 %.val8, 0
  br i1 %4, label %.lr.ph, label %.critedge

.lr.ph:                                           ; preds = %2
  %5 = getelementptr i8, ptr %1, i64 8
  %.val = load ptr, ptr %5, align 8, !tbaa !12
  %6 = load ptr, ptr %0, align 8, !tbaa !3
  %7 = getelementptr i8, ptr %6, i64 256
  %.val35.i = load ptr, ptr %7, align 8, !tbaa !12
  %8 = getelementptr i8, ptr %0, i64 64
  %9 = getelementptr i8, ptr %0, i64 32
  %10 = getelementptr i8, ptr %0, i64 16
  %11 = getelementptr i8, ptr %0, i64 48
  %wide.trip.count = zext nneg i32 %.val8 to i64
  br label %12

12:                                               ; preds = %.lr.ph, %Wln_RetCheckBackwardOne.exit
  %indvars.iv = phi i64 [ 0, %.lr.ph ], [ %indvars.iv.next, %Wln_RetCheckBackwardOne.exit ]
  %13 = getelementptr inbounds nuw i32, ptr %.val, i64 %indvars.iv
  %14 = load i32, ptr %13, align 4, !tbaa !13
  %15 = sext i32 %14 to i64
  %16 = getelementptr inbounds i32, ptr %.val35.i, i64 %15
  %17 = load i32, ptr %16, align 4, !tbaa !13
  %18 = icmp eq i32 %17, 0
  br i1 %18, label %.critedge, label %.preheader.i

.preheader.i:                                     ; preds = %12
  %19 = icmp sgt i32 %17, 0
  br i1 %19, label %.lr.ph.i, label %Wln_RetCheckBackwardOne.exit

.lr.ph.i:                                         ; preds = %.preheader.i
  %.val37.i = load ptr, ptr %9, align 8, !tbaa !12
  %20 = getelementptr inbounds i32, ptr %.val37.i, i64 %15
  %21 = load i32, ptr %20, align 4, !tbaa !13
  %22 = sext i32 %21 to i64
  %23 = getelementptr inbounds i32, ptr %.val37.i, i64 %22
  %.val33.i = load ptr, ptr %10, align 8, !tbaa !12
  %.not.i = icmp eq ptr %.val33.i, null
  br i1 %.not.i, label %Wln_RetCheckBackwardOne.exit, label %.lr.ph.split.preheader.i

.lr.ph.split.preheader.i:                         ; preds = %.lr.ph.i
  %wide.trip.count.i = zext nneg i32 %17 to i64
  br label %.lr.ph.split.i

.lr.ph.split.i:                                   ; preds = %50, %.lr.ph.split.preheader.i
  %indvars.iv.i = phi i64 [ 0, %.lr.ph.split.preheader.i ], [ %indvars.iv.next.i, %50 ]
  %.039.i = phi i32 [ -1, %.lr.ph.split.preheader.i ], [ %.1.i, %50 ]
  %24 = shl nuw nsw i64 %indvars.iv.i, 1
  %25 = or disjoint i64 %24, 1
  %26 = getelementptr inbounds nuw i32, ptr %23, i64 %25
  %27 = load i32, ptr %26, align 4, !tbaa !13
  %28 = sext i32 %27 to i64
  %29 = getelementptr inbounds i32, ptr %.val33.i, i64 %28
  %30 = getelementptr inbounds nuw i32, ptr %23, i64 %24
  %31 = load i32, ptr %30, align 4, !tbaa !13
  %.not28.i = icmp eq i32 %31, 0
  br i1 %.not28.i, label %50, label %32

32:                                               ; preds = %.lr.ph.split.i
  %33 = load i32, ptr %29, align 4, !tbaa !13
  %.not29.i = icmp eq i32 %33, 0
  br i1 %.not29.i, label %.critedge, label %34

34:                                               ; preds = %32
  %.val.i.i = load ptr, ptr %11, align 8, !tbaa !12
  br label %tailrecurse.i.i

tailrecurse.i.i:                                  ; preds = %tailrecurse.i.i, %34
  %35 = phi i32 [ %33, %34 ], [ %38, %tailrecurse.i.i ]
  %.tr7.i.i = phi ptr [ %29, %34 ], [ %37, %tailrecurse.i.i ]
  %36 = sext i32 %35 to i64
  %37 = getelementptr inbounds i32, ptr %.val.i.i, i64 %36
  %38 = load i32, ptr %37, align 4, !tbaa !13
  %39 = icmp eq i32 %38, 0
  br i1 %39, label %Wln_RetHeadToTail.exit.i, label %tailrecurse.i.i

Wln_RetHeadToTail.exit.i:                         ; preds = %tailrecurse.i.i
  %40 = load i32, ptr %.tr7.i.i, align 4, !tbaa !13
  %41 = sext i32 %40 to i64
  %42 = getelementptr i32, ptr %.val.i.i, i64 %41
  %43 = getelementptr i8, ptr %42, i64 4
  %44 = load i32, ptr %43, align 4, !tbaa !13
  %45 = icmp eq i32 %.039.i, -1
  %.val31.i = load ptr, ptr %8, align 8, !tbaa !12
  %46 = sext i32 %44 to i64
  %47 = getelementptr inbounds i32, ptr %.val31.i, i64 %46
  %48 = load i32, ptr %47, align 4, !tbaa !13
  br i1 %45, label %50, label %49

49:                                               ; preds = %Wln_RetHeadToTail.exit.i
  %.not30.i = icmp eq i32 %.039.i, %48
  br i1 %.not30.i, label %50, label %.critedge

50:                                               ; preds = %49, %Wln_RetHeadToTail.exit.i, %.lr.ph.split.i
  %.1.i = phi i32 [ %.039.i, %49 ], [ %.039.i, %.lr.ph.split.i ], [ %48, %Wln_RetHeadToTail.exit.i ]
  %indvars.iv.next.i = add nuw nsw i64 %indvars.iv.i, 1
  %exitcond.not.i = icmp eq i64 %indvars.iv.next.i, %wide.trip.count.i
  br i1 %exitcond.not.i, label %Wln_RetCheckBackwardOne.exit, label %.lr.ph.split.i, !llvm.loop !92

Wln_RetCheckBackwardOne.exit:                     ; preds = %50, %.lr.ph.i, %.preheader.i
  %indvars.iv.next = add nuw nsw i64 %indvars.iv, 1
  %exitcond.not = icmp eq i64 %indvars.iv.next, %wide.trip.count
  br i1 %exitcond.not, label %.critedge, label %12, !llvm.loop !93

.critedge:                                        ; preds = %Wln_RetCheckBackwardOne.exit, %12, %49, %32, %2
  %.0 = phi i32 [ 1, %2 ], [ 0, %32 ], [ 0, %49 ], [ 1, %Wln_RetCheckBackwardOne.exit ], [ 0, %12 ]
  ret i32 %.0
}